
a.out:     file format elf32-littleriscv


Disassembly of section .text:

00010074 <main>:
   10074:	000115b7          	lui	a1,0x11
   10078:	f7010113          	addi	sp,sp,-144
   1007c:	77458793          	addi	a5,a1,1908 # 11774 <K.1641+0x100>
   10080:	00100693          	li	a3,1
   10084:	08112623          	sw	ra,140(sp)
   10088:	40f686b3          	sub	a3,a3,a5
   1008c:	00f68633          	add	a2,a3,a5
   10090:	00178793          	addi	a5,a5,1
   10094:	0007c703          	lbu	a4,0(a5)
   10098:	fe071ae3          	bnez	a4,1008c <main+0x18>
   1009c:	6a09e7b7          	lui	a5,0x6a09e
   100a0:	66778793          	addi	a5,a5,1639 # 6a09e667 <__global_pointer$+0x6a08b6df>
   100a4:	00f12623          	sw	a5,12(sp)
   100a8:	bb67b7b7          	lui	a5,0xbb67b
   100ac:	e8578793          	addi	a5,a5,-379 # bb67ae85 <__global_pointer$+0xbb667efd>
   100b0:	00f12823          	sw	a5,16(sp)
   100b4:	3c6ef7b7          	lui	a5,0x3c6ef
   100b8:	37278793          	addi	a5,a5,882 # 3c6ef372 <__global_pointer$+0x3c6dc3ea>
   100bc:	00f12a23          	sw	a5,20(sp)
   100c0:	a54ff7b7          	lui	a5,0xa54ff
   100c4:	53a78793          	addi	a5,a5,1338 # a54ff53a <__global_pointer$+0xa54ec5b2>
   100c8:	00f12c23          	sw	a5,24(sp)
   100cc:	510e57b7          	lui	a5,0x510e5
   100d0:	27f78793          	addi	a5,a5,639 # 510e527f <__global_pointer$+0x510d22f7>
   100d4:	00f12e23          	sw	a5,28(sp)
   100d8:	9b0577b7          	lui	a5,0x9b057
   100dc:	88c78793          	addi	a5,a5,-1908 # 9b05688c <__global_pointer$+0x9b043904>
   100e0:	02f12023          	sw	a5,32(sp)
   100e4:	1f83e7b7          	lui	a5,0x1f83e
   100e8:	9ab78793          	addi	a5,a5,-1621 # 1f83d9ab <__global_pointer$+0x1f82aa23>
   100ec:	02f12223          	sw	a5,36(sp)
   100f0:	5be0d7b7          	lui	a5,0x5be0d
   100f4:	d1978793          	addi	a5,a5,-743 # 5be0cd19 <__global_pointer$+0x5bdf9d91>
   100f8:	77458593          	addi	a1,a1,1908
   100fc:	00c10513          	addi	a0,sp,12
   10100:	02f12423          	sw	a5,40(sp)
   10104:	02012823          	sw	zero,48(sp)
   10108:	02012623          	sw	zero,44(sp)
   1010c:	02011a23          	sh	zero,52(sp)
   10110:	06012c23          	sw	zero,120(sp)
   10114:	06012e23          	sw	zero,124(sp)
   10118:	4ad000ef          	jal	ra,10dc4 <SHA256Input>
   1011c:	07c12783          	lw	a5,124(sp)
   10120:	00079663          	bnez	a5,1012c <main+0xb8>
   10124:	07812783          	lw	a5,120(sp)
   10128:	00078a63          	beqz	a5,1013c <main+0xc8>
   1012c:	08c12083          	lw	ra,140(sp)
   10130:	00000513          	li	a0,0
   10134:	09010113          	addi	sp,sp,144
   10138:	00008067          	ret
   1013c:	03411783          	lh	a5,52(sp)
   10140:	03700613          	li	a2,55
   10144:	01079693          	slli	a3,a5,0x10
   10148:	0106d693          	srli	a3,a3,0x10
   1014c:	00168713          	addi	a4,a3,1
   10150:	01071713          	slli	a4,a4,0x10
   10154:	41075713          	srai	a4,a4,0x10
   10158:	0af64863          	blt	a2,a5,10208 <main+0x194>
   1015c:	08010693          	addi	a3,sp,128
   10160:	00f687b3          	add	a5,a3,a5
   10164:	02e11a23          	sh	a4,52(sp)
   10168:	f8000713          	li	a4,-128
   1016c:	fae78b23          	sb	a4,-74(a5)
   10170:	03411503          	lh	a0,52(sp)
   10174:	03700793          	li	a5,55
   10178:	02a7ca63          	blt	a5,a0,101ac <main+0x138>
   1017c:	03700613          	li	a2,55
   10180:	40a60633          	sub	a2,a2,a0
   10184:	01061613          	slli	a2,a2,0x10
   10188:	00c10793          	addi	a5,sp,12
   1018c:	01065613          	srli	a2,a2,0x10
   10190:	02a50513          	addi	a0,a0,42
   10194:	00a78533          	add	a0,a5,a0
   10198:	00160613          	addi	a2,a2,1
   1019c:	00000593          	li	a1,0
   101a0:	224010ef          	jal	ra,113c4 <memset>
   101a4:	03800793          	li	a5,56
   101a8:	02f11a23          	sh	a5,52(sp)
   101ac:	02c15603          	lhu	a2,44(sp)
   101b0:	03015683          	lhu	a3,48(sp)
   101b4:	02c12703          	lw	a4,44(sp)
   101b8:	03012783          	lw	a5,48(sp)
   101bc:	00861513          	slli	a0,a2,0x8
   101c0:	00869593          	slli	a1,a3,0x8
   101c4:	00865613          	srli	a2,a2,0x8
   101c8:	0086d693          	srli	a3,a3,0x8
   101cc:	00c56633          	or	a2,a0,a2
   101d0:	01875813          	srli	a6,a4,0x18
   101d4:	00d5e6b3          	or	a3,a1,a3
   101d8:	01075713          	srli	a4,a4,0x10
   101dc:	0187d593          	srli	a1,a5,0x18
   101e0:	00c10513          	addi	a0,sp,12
   101e4:	0107d793          	srli	a5,a5,0x10
   101e8:	07010723          	sb	a6,110(sp)
   101ec:	06e107a3          	sb	a4,111(sp)
   101f0:	06c11823          	sh	a2,112(sp)
   101f4:	06b10923          	sb	a1,114(sp)
   101f8:	06f109a3          	sb	a5,115(sp)
   101fc:	06d11a23          	sh	a3,116(sp)
   10200:	188000ef          	jal	ra,10388 <SHA224_256ProcessMessageBlock>
   10204:	f29ff06f          	j	1012c <main+0xb8>
   10208:	08010613          	addi	a2,sp,128
   1020c:	00f607b3          	add	a5,a2,a5
   10210:	f8000613          	li	a2,-128
   10214:	fac78b23          	sb	a2,-74(a5)
   10218:	02e11a23          	sh	a4,52(sp)
   1021c:	03f00793          	li	a5,63
   10220:	02e7ca63          	blt	a5,a4,10254 <main+0x1e0>
   10224:	03e00613          	li	a2,62
   10228:	40d60633          	sub	a2,a2,a3
   1022c:	01061613          	slli	a2,a2,0x10
   10230:	00c10793          	addi	a5,sp,12
   10234:	02a70713          	addi	a4,a4,42
   10238:	01065613          	srli	a2,a2,0x10
   1023c:	00e78533          	add	a0,a5,a4
   10240:	00160613          	addi	a2,a2,1
   10244:	00000593          	li	a1,0
   10248:	17c010ef          	jal	ra,113c4 <memset>
   1024c:	04000793          	li	a5,64
   10250:	02f11a23          	sh	a5,52(sp)
   10254:	00c10513          	addi	a0,sp,12
   10258:	130000ef          	jal	ra,10388 <SHA224_256ProcessMessageBlock>
   1025c:	f15ff06f          	j	10170 <main+0xfc>

00010260 <_start>:
   10260:	00003197          	auipc	gp,0x3
   10264:	d2818193          	addi	gp,gp,-728 # 12f88 <__global_pointer$>
   10268:	c4418513          	addi	a0,gp,-956 # 12bcc <_edata>
   1026c:	c6018613          	addi	a2,gp,-928 # 12be8 <__BSS_END__>
   10270:	40a60633          	sub	a2,a2,a0
   10274:	00000593          	li	a1,0
   10278:	14c010ef          	jal	ra,113c4 <memset>
   1027c:	00001517          	auipc	a0,0x1
   10280:	04450513          	addi	a0,a0,68 # 112c0 <__libc_fini_array>
   10284:	7f9000ef          	jal	ra,1127c <atexit>
   10288:	094010ef          	jal	ra,1131c <__libc_init_array>
   1028c:	00012503          	lw	a0,0(sp)
   10290:	00410593          	addi	a1,sp,4
   10294:	00000613          	li	a2,0
   10298:	dddff0ef          	jal	ra,10074 <main>
   1029c:	7f50006f          	j	11290 <exit>

000102a0 <_fini>:
   102a0:	00008067          	ret

000102a4 <deregister_tm_clones>:
   102a4:	c2818713          	addi	a4,gp,-984 # 12bb0 <__SDATA_BEGIN__>
   102a8:	c2818793          	addi	a5,gp,-984 # 12bb0 <__SDATA_BEGIN__>
   102ac:	00e78c63          	beq	a5,a4,102c4 <deregister_tm_clones+0x20>
   102b0:	00000337          	lui	t1,0x0
   102b4:	00030313          	mv	t1,t1
   102b8:	00030663          	beqz	t1,102c4 <deregister_tm_clones+0x20>
   102bc:	c2818513          	addi	a0,gp,-984 # 12bb0 <__SDATA_BEGIN__>
   102c0:	00030067          	jr	t1 # 0 <main-0x10074>
   102c4:	00008067          	ret

000102c8 <register_tm_clones>:
   102c8:	c2818593          	addi	a1,gp,-984 # 12bb0 <__SDATA_BEGIN__>
   102cc:	c2818793          	addi	a5,gp,-984 # 12bb0 <__SDATA_BEGIN__>
   102d0:	40f585b3          	sub	a1,a1,a5
   102d4:	4025d593          	srai	a1,a1,0x2
   102d8:	01f5d793          	srli	a5,a1,0x1f
   102dc:	00b785b3          	add	a1,a5,a1
   102e0:	4015d593          	srai	a1,a1,0x1
   102e4:	00058c63          	beqz	a1,102fc <register_tm_clones+0x34>
   102e8:	00000337          	lui	t1,0x0
   102ec:	00030313          	mv	t1,t1
   102f0:	00030663          	beqz	t1,102fc <register_tm_clones+0x34>
   102f4:	c2818513          	addi	a0,gp,-984 # 12bb0 <__SDATA_BEGIN__>
   102f8:	00030067          	jr	t1 # 0 <main-0x10074>
   102fc:	00008067          	ret

00010300 <__do_global_dtors_aux>:
   10300:	c441c703          	lbu	a4,-956(gp) # 12bcc <_edata>
   10304:	04071663          	bnez	a4,10350 <__do_global_dtors_aux+0x50>
   10308:	ff010113          	addi	sp,sp,-16
   1030c:	00812423          	sw	s0,8(sp)
   10310:	00112623          	sw	ra,12(sp)
   10314:	00078413          	mv	s0,a5
   10318:	f8dff0ef          	jal	ra,102a4 <deregister_tm_clones>
   1031c:	000007b7          	lui	a5,0x0
   10320:	00078793          	mv	a5,a5
   10324:	00078a63          	beqz	a5,10338 <__do_global_dtors_aux+0x38>
   10328:	00012537          	lui	a0,0x12
   1032c:	77850513          	addi	a0,a0,1912 # 12778 <__FRAME_END__>
   10330:	00000097          	auipc	ra,0x0
   10334:	000000e7          	jalr	zero # 0 <main-0x10074>
   10338:	00100793          	li	a5,1
   1033c:	c4f18223          	sb	a5,-956(gp) # 12bcc <_edata>
   10340:	00c12083          	lw	ra,12(sp)
   10344:	00812403          	lw	s0,8(sp)
   10348:	01010113          	addi	sp,sp,16
   1034c:	00008067          	ret
   10350:	00008067          	ret

00010354 <frame_dummy>:
   10354:	000007b7          	lui	a5,0x0
   10358:	00078793          	mv	a5,a5
   1035c:	02078463          	beqz	a5,10384 <frame_dummy+0x30>
   10360:	00012537          	lui	a0,0x12
   10364:	ff010113          	addi	sp,sp,-16
   10368:	c4818593          	addi	a1,gp,-952 # 12bd0 <object.5435>
   1036c:	77850513          	addi	a0,a0,1912 # 12778 <__FRAME_END__>
   10370:	00112623          	sw	ra,12(sp)
   10374:	00000097          	auipc	ra,0x0
   10378:	000000e7          	jalr	zero # 0 <main-0x10074>
   1037c:	00c12083          	lw	ra,12(sp)
   10380:	01010113          	addi	sp,sp,16
   10384:	f45ff06f          	j	102c8 <register_tm_clones>

00010388 <SHA224_256ProcessMessageBlock>:
   10388:	eb010113          	addi	sp,sp,-336
   1038c:	13a12223          	sw	s10,292(sp)
   10390:	13b12023          	sw	s11,288(sp)
   10394:	14812623          	sw	s0,332(sp)
   10398:	14912423          	sw	s1,328(sp)
   1039c:	15212223          	sw	s2,324(sp)
   103a0:	15312023          	sw	s3,320(sp)
   103a4:	13412e23          	sw	s4,316(sp)
   103a8:	13512c23          	sw	s5,312(sp)
   103ac:	13612a23          	sw	s6,308(sp)
   103b0:	13712823          	sw	s7,304(sp)
   103b4:	13812623          	sw	s8,300(sp)
   103b8:	13912423          	sw	s9,296(sp)
   103bc:	02a54c83          	lbu	s9,42(a0)
   103c0:	02b54283          	lbu	t0,43(a0)
   103c4:	02e54803          	lbu	a6,46(a0)
   103c8:	02f54f83          	lbu	t6,47(a0)
   103cc:	03254583          	lbu	a1,50(a0)
   103d0:	03354603          	lbu	a2,51(a0)
   103d4:	03654683          	lbu	a3,54(a0)
   103d8:	03a54703          	lbu	a4,58(a0)
   103dc:	03e54783          	lbu	a5,62(a0)
   103e0:	03954c03          	lbu	s8,57(a0)
   103e4:	03d54b83          	lbu	s7,61(a0)
   103e8:	04154b03          	lbu	s6,65(a0)
   103ec:	03754483          	lbu	s1,55(a0)
   103f0:	03b54403          	lbu	s0,59(a0)
   103f4:	03f54383          	lbu	t2,63(a0)
   103f8:	02d54a83          	lbu	s5,45(a0)
   103fc:	02c54a03          	lbu	s4,44(a0)
   10400:	03154983          	lbu	s3,49(a0)
   10404:	03554903          	lbu	s2,53(a0)
   10408:	03054f03          	lbu	t5,48(a0)
   1040c:	03454e83          	lbu	t4,52(a0)
   10410:	03854e03          	lbu	t3,56(a0)
   10414:	03c54303          	lbu	t1,60(a0)
   10418:	04054883          	lbu	a7,64(a0)
   1041c:	018c9c93          	slli	s9,s9,0x18
   10420:	010f9f93          	slli	t6,t6,0x10
   10424:	01061613          	slli	a2,a2,0x10
   10428:	01029293          	slli	t0,t0,0x10
   1042c:	01881813          	slli	a6,a6,0x18
   10430:	01859593          	slli	a1,a1,0x18
   10434:	01869693          	slli	a3,a3,0x18
   10438:	01871713          	slli	a4,a4,0x18
   1043c:	01879793          	slli	a5,a5,0x18
   10440:	005ce2b3          	or	t0,s9,t0
   10444:	01f86833          	or	a6,a6,t6
   10448:	00c5e5b3          	or	a1,a1,a2
   1044c:	0186e6b3          	or	a3,a3,s8
   10450:	01049493          	slli	s1,s1,0x10
   10454:	01776733          	or	a4,a4,s7
   10458:	01041413          	slli	s0,s0,0x10
   1045c:	0167e7b3          	or	a5,a5,s6
   10460:	01039393          	slli	t2,t2,0x10
   10464:	0152e633          	or	a2,t0,s5
   10468:	008a1f93          	slli	t6,s4,0x8
   1046c:	01386833          	or	a6,a6,s3
   10470:	008f1f13          	slli	t5,t5,0x8
   10474:	0125e5b3          	or	a1,a1,s2
   10478:	008e9e93          	slli	t4,t4,0x8
   1047c:	0096e6b3          	or	a3,a3,s1
   10480:	008e1e13          	slli	t3,t3,0x8
   10484:	00876733          	or	a4,a4,s0
   10488:	00831313          	slli	t1,t1,0x8
   1048c:	0077e7b3          	or	a5,a5,t2
   10490:	00889893          	slli	a7,a7,0x8
   10494:	01e86833          	or	a6,a6,t5
   10498:	01d5e5b3          	or	a1,a1,t4
   1049c:	01c6e6b3          	or	a3,a3,t3
   104a0:	00676733          	or	a4,a4,t1
   104a4:	0117e7b3          	or	a5,a5,a7
   104a8:	01f66633          	or	a2,a2,t6
   104ac:	04254283          	lbu	t0,66(a0)
   104b0:	04554d83          	lbu	s11,69(a0)
   104b4:	03012223          	sw	a6,36(sp)
   104b8:	02b12423          	sw	a1,40(sp)
   104bc:	02d12623          	sw	a3,44(sp)
   104c0:	02e12823          	sw	a4,48(sp)
   104c4:	02f12a23          	sw	a5,52(sp)
   104c8:	04354583          	lbu	a1,67(a0)
   104cc:	04654f83          	lbu	t6,70(a0)
   104d0:	04a54f03          	lbu	t5,74(a0)
   104d4:	04e54e83          	lbu	t4,78(a0)
   104d8:	05254e03          	lbu	t3,82(a0)
   104dc:	05654803          	lbu	a6,86(a0)
   104e0:	04954d03          	lbu	s10,73(a0)
   104e4:	04754683          	lbu	a3,71(a0)
   104e8:	04d54c83          	lbu	s9,77(a0)
   104ec:	04b54703          	lbu	a4,75(a0)
   104f0:	05154c03          	lbu	s8,81(a0)
   104f4:	04f54303          	lbu	t1,79(a0)
   104f8:	05554b83          	lbu	s7,85(a0)
   104fc:	05354883          	lbu	a7,83(a0)
   10500:	05954b03          	lbu	s6,89(a0)
   10504:	05754a83          	lbu	s5,87(a0)
   10508:	05a54783          	lbu	a5,90(a0)
   1050c:	04454a03          	lbu	s4,68(a0)
   10510:	04854983          	lbu	s3,72(a0)
   10514:	04c54903          	lbu	s2,76(a0)
   10518:	02c12023          	sw	a2,32(sp)
   1051c:	05054483          	lbu	s1,80(a0)
   10520:	05454383          	lbu	t2,84(a0)
   10524:	05854403          	lbu	s0,88(a0)
   10528:	01881813          	slli	a6,a6,0x18
   1052c:	00712623          	sw	t2,12(sp)
   10530:	00812823          	sw	s0,16(sp)
   10534:	05d54383          	lbu	t2,93(a0)
   10538:	01686b33          	or	s6,a6,s6
   1053c:	01012803          	lw	a6,16(sp)
   10540:	018e9e93          	slli	t4,t4,0x18
   10544:	00712a23          	sw	t2,20(sp)
   10548:	018eeeb3          	or	t4,t4,s8
   1054c:	018f1f13          	slli	t5,t5,0x18
   10550:	01031313          	slli	t1,t1,0x10
   10554:	006ee333          	or	t1,t4,t1
   10558:	05b54383          	lbu	t2,91(a0)
   1055c:	00881e93          	slli	t4,a6,0x8
   10560:	01071713          	slli	a4,a4,0x10
   10564:	01412803          	lw	a6,20(sp)
   10568:	01829293          	slli	t0,t0,0x18
   1056c:	018f9f93          	slli	t6,t6,0x18
   10570:	019f6f33          	or	t5,t5,s9
   10574:	00ef6f33          	or	t5,t5,a4
   10578:	05c54403          	lbu	s0,92(a0)
   1057c:	01b2e2b3          	or	t0,t0,s11
   10580:	01afefb3          	or	t6,t6,s10
   10584:	00c12703          	lw	a4,12(sp)
   10588:	01059593          	slli	a1,a1,0x10
   1058c:	01069693          	slli	a3,a3,0x10
   10590:	00b2e5b3          	or	a1,t0,a1
   10594:	00dfe6b3          	or	a3,t6,a3
   10598:	018e1e13          	slli	t3,t3,0x18
   1059c:	00891913          	slli	s2,s2,0x8
   105a0:	010a9a93          	slli	s5,s5,0x10
   105a4:	01879793          	slli	a5,a5,0x18
   105a8:	008a1a13          	slli	s4,s4,0x8
   105ac:	00899993          	slli	s3,s3,0x8
   105b0:	0107e7b3          	or	a5,a5,a6
   105b4:	017e6bb3          	or	s7,t3,s7
   105b8:	0145e833          	or	a6,a1,s4
   105bc:	05e54f83          	lbu	t6,94(a0)
   105c0:	0136e5b3          	or	a1,a3,s3
   105c4:	01089893          	slli	a7,a7,0x10
   105c8:	012f66b3          	or	a3,t5,s2
   105cc:	015b6ab3          	or	s5,s6,s5
   105d0:	01039393          	slli	t2,t2,0x10
   105d4:	00849e13          	slli	t3,s1,0x8
   105d8:	011be8b3          	or	a7,s7,a7
   105dc:	01dae4b3          	or	s1,s5,t4
   105e0:	0077e3b3          	or	t2,a5,t2
   105e4:	00841413          	slli	s0,s0,0x8
   105e8:	04d12023          	sw	a3,64(sp)
   105ec:	06254e83          	lbu	t4,98(a0)
   105f0:	06654683          	lbu	a3,102(a0)
   105f4:	06154903          	lbu	s2,97(a0)
   105f8:	05f54f03          	lbu	t5,95(a0)
   105fc:	00871713          	slli	a4,a4,0x8
   10600:	01c36e33          	or	t3,t1,t3
   10604:	00e8e733          	or	a4,a7,a4
   10608:	03012c23          	sw	a6,56(sp)
   1060c:	0083e3b3          	or	t2,t2,s0
   10610:	06354303          	lbu	t1,99(a0)
   10614:	06554403          	lbu	s0,101(a0)
   10618:	06954283          	lbu	t0,105(a0)
   1061c:	06754883          	lbu	a7,103(a0)
   10620:	06054803          	lbu	a6,96(a0)
   10624:	02b12e23          	sw	a1,60(sp)
   10628:	06854783          	lbu	a5,104(a0)
   1062c:	06454583          	lbu	a1,100(a0)
   10630:	018f9f93          	slli	t6,t6,0x18
   10634:	018e9e93          	slli	t4,t4,0x18
   10638:	01869693          	slli	a3,a3,0x18
   1063c:	012fefb3          	or	t6,t6,s2
   10640:	010f1f13          	slli	t5,t5,0x10
   10644:	00881813          	slli	a6,a6,0x8
   10648:	008eeeb3          	or	t4,t4,s0
   1064c:	01031313          	slli	t1,t1,0x10
   10650:	0056e6b3          	or	a3,a3,t0
   10654:	01089893          	slli	a7,a7,0x10
   10658:	01efefb3          	or	t6,t6,t5
   1065c:	00859593          	slli	a1,a1,0x8
   10660:	00879793          	slli	a5,a5,0x8
   10664:	010fefb3          	or	t6,t6,a6
   10668:	006eeeb3          	or	t4,t4,t1
   1066c:	0116e6b3          	or	a3,a3,a7
   10670:	00beeeb3          	or	t4,t4,a1
   10674:	00f6e6b3          	or	a3,a3,a5
   10678:	05c12223          	sw	t3,68(sp)
   1067c:	02010793          	addi	a5,sp,32
   10680:	04e12423          	sw	a4,72(sp)
   10684:	04912623          	sw	s1,76(sp)
   10688:	04712823          	sw	t2,80(sp)
   1068c:	05f12a23          	sw	t6,84(sp)
   10690:	01000813          	li	a6,16
   10694:	05d12c23          	sw	t4,88(sp)
   10698:	00078593          	mv	a1,a5
   1069c:	00f12623          	sw	a5,12(sp)
   106a0:	04d12e23          	sw	a3,92(sp)
   106a4:	00080793          	mv	a5,a6
   106a8:	0045a283          	lw	t0,4(a1)
   106ac:	011edf13          	srli	t5,t4,0x11
   106b0:	013ed313          	srli	t1,t4,0x13
   106b4:	00fe9813          	slli	a6,t4,0xf
   106b8:	00de9893          	slli	a7,t4,0xd
   106bc:	0068e8b3          	or	a7,a7,t1
   106c0:	01929a13          	slli	s4,t0,0x19
   106c4:	0122d913          	srli	s2,t0,0x12
   106c8:	01e86833          	or	a6,a6,t5
   106cc:	0072d313          	srli	t1,t0,0x7
   106d0:	00e29f13          	slli	t5,t0,0xe
   106d4:	00c5a983          	lw	s3,12(a1)
   106d8:	00aed413          	srli	s0,t4,0xa
   106dc:	01184833          	xor	a6,a6,a7
   106e0:	01436333          	or	t1,t1,s4
   106e4:	012f6f33          	or	t5,t5,s2
   106e8:	0085a883          	lw	a7,8(a1)
   106ec:	01c60a33          	add	s4,a2,t3
   106f0:	0032d913          	srli	s2,t0,0x3
   106f4:	00884e33          	xor	t3,a6,s0
   106f8:	01e34633          	xor	a2,t1,t5
   106fc:	0136d413          	srli	s0,a3,0x13
   10700:	00f69813          	slli	a6,a3,0xf
   10704:	0116df13          	srli	t5,a3,0x11
   10708:	01264633          	xor	a2,a2,s2
   1070c:	00d69313          	slli	t1,a3,0xd
   10710:	014e0e33          	add	t3,t3,s4
   10714:	00ce0e33          	add	t3,t3,a2
   10718:	00836333          	or	t1,t1,s0
   1071c:	01e86633          	or	a2,a6,t5
   10720:	0129d913          	srli	s2,s3,0x12
   10724:	0079d413          	srli	s0,s3,0x7
   10728:	00e99b13          	slli	s6,s3,0xe
   1072c:	01999813          	slli	a6,s3,0x19
   10730:	00a6dd93          	srli	s11,a3,0xa
   10734:	00e89d13          	slli	s10,a7,0xe
   10738:	0078dc93          	srli	s9,a7,0x7
   1073c:	012b6b33          	or	s6,s6,s2
   10740:	00c34633          	xor	a2,t1,a2
   10744:	0128df13          	srli	t5,a7,0x12
   10748:	01989a93          	slli	s5,a7,0x19
   1074c:	01046833          	or	a6,s0,a6
   10750:	00de1c13          	slli	s8,t3,0xd
   10754:	00fe1b93          	slli	s7,t3,0xf
   10758:	013e5313          	srli	t1,t3,0x13
   1075c:	011e5a13          	srli	s4,t3,0x11
   10760:	0105a903          	lw	s2,16(a1)
   10764:	0145a403          	lw	s0,20(a1)
   10768:	015ceab3          	or	s5,s9,s5
   1076c:	006c6333          	or	t1,s8,t1
   10770:	014bea33          	or	s4,s7,s4
   10774:	01b64633          	xor	a2,a2,s11
   10778:	01ed6f33          	or	t5,s10,t5
   1077c:	010b4833          	xor	a6,s6,a6
   10780:	0039db13          	srli	s6,s3,0x3
   10784:	00988bb3          	add	s7,a7,s1
   10788:	00560633          	add	a2,a2,t0
   1078c:	015f4f33          	xor	t5,t5,s5
   10790:	01684833          	xor	a6,a6,s6
   10794:	014344b3          	xor	s1,t1,s4
   10798:	0038d893          	srli	a7,a7,0x3
   1079c:	00ae5313          	srli	t1,t3,0xa
   107a0:	011f48b3          	xor	a7,t5,a7
   107a4:	00e60733          	add	a4,a2,a4
   107a8:	0064c4b3          	xor	s1,s1,t1
   107ac:	01780633          	add	a2,a6,s7
   107b0:	01170733          	add	a4,a4,a7
   107b4:	009604b3          	add	s1,a2,s1
   107b8:	01295293          	srli	t0,s2,0x12
   107bc:	01991f13          	slli	t5,s2,0x19
   107c0:	01941313          	slli	t1,s0,0x19
   107c4:	01245613          	srli	a2,s0,0x12
   107c8:	00e91d93          	slli	s11,s2,0xe
   107cc:	00795893          	srli	a7,s2,0x7
   107d0:	00745b13          	srli	s6,s0,0x7
   107d4:	00e41813          	slli	a6,s0,0xe
   107d8:	005dedb3          	or	s11,s11,t0
   107dc:	006b6b33          	or	s6,s6,t1
   107e0:	01e8e8b3          	or	a7,a7,t5
   107e4:	00d71c93          	slli	s9,a4,0xd
   107e8:	00c86833          	or	a6,a6,a2
   107ec:	00f49c13          	slli	s8,s1,0xf
   107f0:	00d49b93          	slli	s7,s1,0xd
   107f4:	00f71d13          	slli	s10,a4,0xf
   107f8:	01175293          	srli	t0,a4,0x11
   107fc:	01375a93          	srli	s5,a4,0x13
   10800:	0114df13          	srli	t5,s1,0x11
   10804:	0134da13          	srli	s4,s1,0x13
   10808:	0185a303          	lw	t1,24(a1)
   1080c:	01c5a603          	lw	a2,28(a1)
   10810:	015ceab3          	or	s5,s9,s5
   10814:	01ec6f33          	or	t5,s8,t5
   10818:	014bea33          	or	s4,s7,s4
   1081c:	011dc8b3          	xor	a7,s11,a7
   10820:	010b4833          	xor	a6,s6,a6
   10824:	00395d93          	srli	s11,s2,0x3
   10828:	00345b13          	srli	s6,s0,0x3
   1082c:	005d62b3          	or	t0,s10,t0
   10830:	007983b3          	add	t2,s3,t2
   10834:	012f8933          	add	s2,t6,s2
   10838:	0152c2b3          	xor	t0,t0,s5
   1083c:	014f4fb3          	xor	t6,t5,s4
   10840:	00a75993          	srli	s3,a4,0xa
   10844:	01684833          	xor	a6,a6,s6
   10848:	00a4df13          	srli	t5,s1,0xa
   1084c:	01b8c8b3          	xor	a7,a7,s11
   10850:	007888b3          	add	a7,a7,t2
   10854:	01280833          	add	a6,a6,s2
   10858:	0132c3b3          	xor	t2,t0,s3
   1085c:	01efcfb3          	xor	t6,t6,t5
   10860:	007883b3          	add	t2,a7,t2
   10864:	01f80fb3          	add	t6,a6,t6
   10868:	01931993          	slli	s3,t1,0x19
   1086c:	01235293          	srli	t0,t1,0x12
   10870:	00735a93          	srli	s5,t1,0x7
   10874:	00e31f13          	slli	t5,t1,0xe
   10878:	01961913          	slli	s2,a2,0x19
   1087c:	01265813          	srli	a6,a2,0x12
   10880:	00765a13          	srli	s4,a2,0x7
   10884:	00e61893          	slli	a7,a2,0xe
   10888:	013aeab3          	or	s5,s5,s3
   1088c:	012a6a33          	or	s4,s4,s2
   10890:	005f6f33          	or	t5,t5,t0
   10894:	0108e8b3          	or	a7,a7,a6
   10898:	00f39c93          	slli	s9,t2,0xf
   1089c:	0113d293          	srli	t0,t2,0x11
   108a0:	00d39c13          	slli	s8,t2,0xd
   108a4:	0133d993          	srli	s3,t2,0x13
   108a8:	00ff9b93          	slli	s7,t6,0xf
   108ac:	011fd813          	srli	a6,t6,0x11
   108b0:	00df9b13          	slli	s6,t6,0xd
   108b4:	013fd913          	srli	s2,t6,0x13
   108b8:	01eacf33          	xor	t5,s5,t5
   108bc:	005ce2b3          	or	t0,s9,t0
   108c0:	00335a93          	srli	s5,t1,0x3
   108c4:	013c69b3          	or	s3,s8,s3
   108c8:	011a48b3          	xor	a7,s4,a7
   108cc:	010be833          	or	a6,s7,a6
   108d0:	00365a13          	srli	s4,a2,0x3
   108d4:	012b6933          	or	s2,s6,s2
   108d8:	008e8433          	add	s0,t4,s0
   108dc:	00668333          	add	t1,a3,t1
   108e0:	0132ceb3          	xor	t4,t0,s3
   108e4:	012846b3          	xor	a3,a6,s2
   108e8:	015f4f33          	xor	t5,t5,s5
   108ec:	00a3d993          	srli	s3,t2,0xa
   108f0:	0148c8b3          	xor	a7,a7,s4
   108f4:	00afd293          	srli	t0,t6,0xa
   108f8:	00688833          	add	a6,a7,t1
   108fc:	008f0f33          	add	t5,t5,s0
   10900:	013eceb3          	xor	t4,t4,s3
   10904:	0056c6b3          	xor	a3,a3,t0
   10908:	00d806b3          	add	a3,a6,a3
   1090c:	01df0eb3          	add	t4,t5,t4
   10910:	05c5a023          	sw	t3,64(a1)
   10914:	04e5a223          	sw	a4,68(a1)
   10918:	0495a423          	sw	s1,72(a1)
   1091c:	0475a623          	sw	t2,76(a1)
   10920:	05f5a823          	sw	t6,80(a1)
   10924:	05d5aa23          	sw	t4,84(a1)
   10928:	04d5ac23          	sw	a3,88(a1)
   1092c:	00778793          	addi	a5,a5,7 # 7 <main-0x1006d>
   10930:	03a00813          	li	a6,58
   10934:	01c58593          	addi	a1,a1,28
   10938:	d70798e3          	bne	a5,a6,106a8 <SHA224_256ProcessMessageBlock+0x320>
   1093c:	10012803          	lw	a6,256(sp)
   10940:	10412883          	lw	a7,260(sp)
   10944:	0cc12703          	lw	a4,204(sp)
   10948:	01385f93          	srli	t6,a6,0x13
   1094c:	01185e93          	srli	t4,a6,0x11
   10950:	00d81593          	slli	a1,a6,0xd
   10954:	00f81293          	slli	t0,a6,0xf
   10958:	0138de13          	srli	t3,a7,0x13
   1095c:	0118d693          	srli	a3,a7,0x11
   10960:	01d2e2b3          	or	t0,t0,t4
   10964:	00d89613          	slli	a2,a7,0xd
   10968:	00f89f13          	slli	t5,a7,0xf
   1096c:	01f5e5b3          	or	a1,a1,t6
   10970:	00df6f33          	or	t5,t5,a3
   10974:	01c66633          	or	a2,a2,t3
   10978:	0055c5b3          	xor	a1,a1,t0
   1097c:	00a85293          	srli	t0,a6,0xa
   10980:	0d012303          	lw	t1,208(sp)
   10984:	01e64633          	xor	a2,a2,t5
   10988:	00a8d893          	srli	a7,a7,0xa
   1098c:	0055c5b3          	xor	a1,a1,t0
   10990:	0c812f03          	lw	t5,200(sp)
   10994:	0ec12283          	lw	t0,236(sp)
   10998:	01275913          	srli	s2,a4,0x12
   1099c:	01971493          	slli	s1,a4,0x19
   109a0:	00e71e93          	slli	t4,a4,0xe
   109a4:	00775f93          	srli	t6,a4,0x7
   109a8:	01164633          	xor	a2,a2,a7
   109ac:	0f012883          	lw	a7,240(sp)
   109b0:	009fefb3          	or	t6,t6,s1
   109b4:	012eeeb3          	or	t4,t4,s2
   109b8:	01931413          	slli	s0,t1,0x19
   109bc:	01235393          	srli	t2,t1,0x12
   109c0:	005f0f33          	add	t5,t5,t0
   109c4:	00735693          	srli	a3,t1,0x7
   109c8:	00375293          	srli	t0,a4,0x3
   109cc:	00e31e13          	slli	t3,t1,0xe
   109d0:	01feceb3          	xor	t4,t4,t6
   109d4:	007e6e33          	or	t3,t3,t2
   109d8:	01170733          	add	a4,a4,a7
   109dc:	005eceb3          	xor	t4,t4,t0
   109e0:	0d412883          	lw	a7,212(sp)
   109e4:	0086e6b3          	or	a3,a3,s0
   109e8:	01e585b3          	add	a1,a1,t5
   109ec:	01d585b3          	add	a1,a1,t4
   109f0:	01c6c6b3          	xor	a3,a3,t3
   109f4:	00335f93          	srli	t6,t1,0x3
   109f8:	0115d293          	srli	t0,a1,0x11
   109fc:	0135df13          	srli	t5,a1,0x13
   10a00:	00e60633          	add	a2,a2,a4
   10a04:	00d59413          	slli	s0,a1,0xd
   10a08:	01f6c733          	xor	a4,a3,t6
   10a0c:	00f59693          	slli	a3,a1,0xf
   10a10:	0d812e03          	lw	t3,216(sp)
   10a14:	01e46433          	or	s0,s0,t5
   10a18:	01989a13          	slli	s4,a7,0x19
   10a1c:	0128d993          	srli	s3,a7,0x12
   10a20:	0056e6b3          	or	a3,a3,t0
   10a24:	0078df13          	srli	t5,a7,0x7
   10a28:	00e89293          	slli	t0,a7,0xe
   10a2c:	00e60633          	add	a2,a2,a4
   10a30:	0132e2b3          	or	t0,t0,s3
   10a34:	0086c6b3          	xor	a3,a3,s0
   10a38:	014f6f33          	or	t5,t5,s4
   10a3c:	00a5d413          	srli	s0,a1,0xa
   10a40:	01165f93          	srli	t6,a2,0x11
   10a44:	01365e93          	srli	t4,a2,0x13
   10a48:	0086c6b3          	xor	a3,a3,s0
   10a4c:	005f4f33          	xor	t5,t5,t0
   10a50:	0f412403          	lw	s0,244(sp)
   10a54:	0f812283          	lw	t0,248(sp)
   10a58:	00f61713          	slli	a4,a2,0xf
   10a5c:	00d61393          	slli	t2,a2,0xd
   10a60:	01d3e3b3          	or	t2,t2,t4
   10a64:	019e1913          	slli	s2,t3,0x19
   10a68:	012e5493          	srli	s1,t3,0x12
   10a6c:	01f76733          	or	a4,a4,t6
   10a70:	007e5e93          	srli	t4,t3,0x7
   10a74:	00ee1f93          	slli	t6,t3,0xe
   10a78:	009fefb3          	or	t6,t6,s1
   10a7c:	00774733          	xor	a4,a4,t2
   10a80:	012eeeb3          	or	t4,t4,s2
   10a84:	00a65393          	srli	t2,a2,0xa
   10a88:	00830333          	add	t1,t1,s0
   10a8c:	01feceb3          	xor	t4,t4,t6
   10a90:	0038d413          	srli	s0,a7,0x3
   10a94:	00774733          	xor	a4,a4,t2
   10a98:	005888b3          	add	a7,a7,t0
   10a9c:	003e5393          	srli	t2,t3,0x3
   10aa0:	01170733          	add	a4,a4,a7
   10aa4:	007ec8b3          	xor	a7,t4,t2
   10aa8:	01170733          	add	a4,a4,a7
   10aac:	0dc12283          	lw	t0,220(sp)
   10ab0:	008f4f33          	xor	t5,t5,s0
   10ab4:	00f71993          	slli	s3,a4,0xf
   10ab8:	006686b3          	add	a3,a3,t1
   10abc:	01175493          	srli	s1,a4,0x11
   10ac0:	01375313          	srli	t1,a4,0x13
   10ac4:	00d71393          	slli	t2,a4,0xd
   10ac8:	0e012f83          	lw	t6,224(sp)
   10acc:	01e686b3          	add	a3,a3,t5
   10ad0:	0063e3b3          	or	t2,t2,t1
   10ad4:	0099e4b3          	or	s1,s3,s1
   10ad8:	0074c4b3          	xor	s1,s1,t2
   10adc:	0116df13          	srli	t5,a3,0x11
   10ae0:	00d69893          	slli	a7,a3,0xd
   10ae4:	0fc12383          	lw	t2,252(sp)
   10ae8:	00f69413          	slli	s0,a3,0xf
   10aec:	0136de93          	srli	t4,a3,0x13
   10af0:	01e46433          	or	s0,s0,t5
   10af4:	0072db93          	srli	s7,t0,0x7
   10af8:	01929b13          	slli	s6,t0,0x19
   10afc:	0122d913          	srli	s2,t0,0x12
   10b00:	01d8eeb3          	or	t4,a7,t4
   10b04:	00e29f13          	slli	t5,t0,0xe
   10b08:	019f9a93          	slli	s5,t6,0x19
   10b0c:	012fda13          	srli	s4,t6,0x12
   10b10:	007fd893          	srli	a7,t6,0x7
   10b14:	00ef9313          	slli	t1,t6,0xe
   10b18:	01d44eb3          	xor	t4,s0,t4
   10b1c:	012f6f33          	or	t5,t5,s2
   10b20:	016be433          	or	s0,s7,s6
   10b24:	00a75913          	srli	s2,a4,0xa
   10b28:	00a6d993          	srli	s3,a3,0xa
   10b2c:	01436333          	or	t1,t1,s4
   10b30:	007e03b3          	add	t2,t3,t2
   10b34:	00580833          	add	a6,a6,t0
   10b38:	0158e8b3          	or	a7,a7,s5
   10b3c:	01e44f33          	xor	t5,s0,t5
   10b40:	0124ce33          	xor	t3,s1,s2
   10b44:	0032d413          	srli	s0,t0,0x3
   10b48:	01c52483          	lw	s1,28(a0)
   10b4c:	01052283          	lw	t0,16(a0)
   10b50:	01452a83          	lw	s5,20(a0)
   10b54:	01852a03          	lw	s4,24(a0)
   10b58:	013eceb3          	xor	t4,t4,s3
   10b5c:	0068c8b3          	xor	a7,a7,t1
   10b60:	00052d83          	lw	s11,0(a0)
   10b64:	003fd313          	srli	t1,t6,0x3
   10b68:	00452d03          	lw	s10,4(a0)
   10b6c:	00852c83          	lw	s9,8(a0)
   10b70:	00c52c03          	lw	s8,12(a0)
   10b74:	007e8eb3          	add	t4,t4,t2
   10b78:	008f4f33          	xor	t5,t5,s0
   10b7c:	010e0e33          	add	t3,t3,a6
   10b80:	00011fb7          	lui	t6,0x11
   10b84:	0068c833          	xor	a6,a7,t1
   10b88:	01ee88b3          	add	a7,t4,t5
   10b8c:	00c12783          	lw	a5,12(sp)
   10b90:	10b12423          	sw	a1,264(sp)
   10b94:	00512623          	sw	t0,12(sp)
   10b98:	10e12a23          	sw	a4,276(sp)
   10b9c:	01512823          	sw	s5,16(sp)
   10ba0:	01412a23          	sw	s4,20(sp)
   10ba4:	00912c23          	sw	s1,24(sp)
   10ba8:	010e0833          	add	a6,t3,a6
   10bac:	674f8f93          	addi	t6,t6,1652 # 11674 <K.1641>
   10bb0:	10c12623          	sw	a2,268(sp)
   10bb4:	10d12823          	sw	a3,272(sp)
   10bb8:	11112c23          	sw	a7,280(sp)
   10bbc:	11012e23          	sw	a6,284(sp)
   10bc0:	00028593          	mv	a1,t0
   10bc4:	100f8b93          	addi	s7,t6,256
   10bc8:	00048713          	mv	a4,s1
   10bcc:	000c0b13          	mv	s6,s8
   10bd0:	000c8293          	mv	t0,s9
   10bd4:	000d0393          	mv	t2,s10
   10bd8:	000d8313          	mv	t1,s11
   10bdc:	00a12e23          	sw	a0,28(sp)
   10be0:	01c0006f          	j	10bfc <SHA224_256ProcessMessageBlock+0x874>
   10be4:	000a8a13          	mv	s4,s5
   10be8:	00038293          	mv	t0,t2
   10bec:	00058a93          	mv	s5,a1
   10bf0:	00030393          	mv	t2,t1
   10bf4:	00068593          	mv	a1,a3
   10bf8:	00048313          	mv	t1,s1
   10bfc:	01a59613          	slli	a2,a1,0x1a
   10c00:	00b5d693          	srli	a3,a1,0xb
   10c04:	0065de13          	srli	t3,a1,0x6
   10c08:	01559813          	slli	a6,a1,0x15
   10c0c:	0106e833          	or	a6,a3,a6
   10c10:	0195d893          	srli	a7,a1,0x19
   10c14:	00ce6e33          	or	t3,t3,a2
   10c18:	00759413          	slli	s0,a1,0x7
   10c1c:	010e4633          	xor	a2,t3,a6
   10c20:	01146433          	or	s0,s0,a7
   10c24:	00864633          	xor	a2,a2,s0
   10c28:	0007a503          	lw	a0,0(a5)
   10c2c:	000fa403          	lw	s0,0(t6)
   10c30:	01331913          	slli	s2,t1,0x13
   10c34:	fff5cf13          	not	t5,a1
   10c38:	00235693          	srli	a3,t1,0x2
   10c3c:	01e31993          	slli	s3,t1,0x1e
   10c40:	00d35e93          	srli	t4,t1,0xd
   10c44:	012eeeb3          	or	t4,t4,s2
   10c48:	0155fe33          	and	t3,a1,s5
   10c4c:	0053c833          	xor	a6,t2,t0
   10c50:	014f7f33          	and	t5,t5,s4
   10c54:	00a31893          	slli	a7,t1,0xa
   10c58:	01635493          	srli	s1,t1,0x16
   10c5c:	00a40433          	add	s0,s0,a0
   10c60:	0136e6b3          	or	a3,a3,s3
   10c64:	01d6c6b3          	xor	a3,a3,t4
   10c68:	0053f933          	and	s2,t2,t0
   10c6c:	00687833          	and	a6,a6,t1
   10c70:	00860633          	add	a2,a2,s0
   10c74:	01cf4f33          	xor	t5,t5,t3
   10c78:	0098e4b3          	or	s1,a7,s1
   10c7c:	0096c4b3          	xor	s1,a3,s1
   10c80:	01e60633          	add	a2,a2,t5
   10c84:	01284833          	xor	a6,a6,s2
   10c88:	00e60733          	add	a4,a2,a4
   10c8c:	010484b3          	add	s1,s1,a6
   10c90:	004f8f93          	addi	t6,t6,4
   10c94:	016706b3          	add	a3,a4,s6
   10c98:	009704b3          	add	s1,a4,s1
   10c9c:	00028b13          	mv	s6,t0
   10ca0:	000a0713          	mv	a4,s4
   10ca4:	00478793          	addi	a5,a5,4
   10ca8:	f3fb9ee3          	bne	s7,t6,10be4 <SHA224_256ProcessMessageBlock+0x85c>
   10cac:	00c12783          	lw	a5,12(sp)
   10cb0:	01c12503          	lw	a0,28(sp)
   10cb4:	14c12403          	lw	s0,332(sp)
   10cb8:	00d786b3          	add	a3,a5,a3
   10cbc:	01012783          	lw	a5,16(sp)
   10cc0:	009d8733          	add	a4,s11,s1
   10cc4:	006d0333          	add	t1,s10,t1
   10cc8:	00b785b3          	add	a1,a5,a1
   10ccc:	01412783          	lw	a5,20(sp)
   10cd0:	007c83b3          	add	t2,s9,t2
   10cd4:	005c02b3          	add	t0,s8,t0
   10cd8:	01578ab3          	add	s5,a5,s5
   10cdc:	01812783          	lw	a5,24(sp)
   10ce0:	01552c23          	sw	s5,24(a0)
   10ce4:	00e52023          	sw	a4,0(a0)
   10ce8:	01478a33          	add	s4,a5,s4
   10cec:	01452e23          	sw	s4,28(a0)
   10cf0:	00652223          	sw	t1,4(a0)
   10cf4:	00752423          	sw	t2,8(a0)
   10cf8:	00552623          	sw	t0,12(a0)
   10cfc:	00d52823          	sw	a3,16(a0)
   10d00:	00b52a23          	sw	a1,20(a0)
   10d04:	02051423          	sh	zero,40(a0)
   10d08:	14812483          	lw	s1,328(sp)
   10d0c:	14412903          	lw	s2,324(sp)
   10d10:	14012983          	lw	s3,320(sp)
   10d14:	13c12a03          	lw	s4,316(sp)
   10d18:	13812a83          	lw	s5,312(sp)
   10d1c:	13412b03          	lw	s6,308(sp)
   10d20:	13012b83          	lw	s7,304(sp)
   10d24:	12c12c03          	lw	s8,300(sp)
   10d28:	12812c83          	lw	s9,296(sp)
   10d2c:	12412d03          	lw	s10,292(sp)
   10d30:	12012d83          	lw	s11,288(sp)
   10d34:	15010113          	addi	sp,sp,336
   10d38:	00008067          	ret

00010d3c <SHA256Reset>:
   10d3c:	08050063          	beqz	a0,10dbc <SHA256Reset+0x80>
   10d40:	6a09e7b7          	lui	a5,0x6a09e
   10d44:	66778793          	addi	a5,a5,1639 # 6a09e667 <__global_pointer$+0x6a08b6df>
   10d48:	00f52023          	sw	a5,0(a0)
   10d4c:	bb67b7b7          	lui	a5,0xbb67b
   10d50:	e8578793          	addi	a5,a5,-379 # bb67ae85 <__global_pointer$+0xbb667efd>
   10d54:	00f52223          	sw	a5,4(a0)
   10d58:	3c6ef7b7          	lui	a5,0x3c6ef
   10d5c:	37278793          	addi	a5,a5,882 # 3c6ef372 <__global_pointer$+0x3c6dc3ea>
   10d60:	00f52423          	sw	a5,8(a0)
   10d64:	a54ff7b7          	lui	a5,0xa54ff
   10d68:	53a78793          	addi	a5,a5,1338 # a54ff53a <__global_pointer$+0xa54ec5b2>
   10d6c:	00f52623          	sw	a5,12(a0)
   10d70:	510e57b7          	lui	a5,0x510e5
   10d74:	27f78793          	addi	a5,a5,639 # 510e527f <__global_pointer$+0x510d22f7>
   10d78:	00f52823          	sw	a5,16(a0)
   10d7c:	9b0577b7          	lui	a5,0x9b057
   10d80:	88c78793          	addi	a5,a5,-1908 # 9b05688c <__global_pointer$+0x9b043904>
   10d84:	00f52a23          	sw	a5,20(a0)
   10d88:	1f83e7b7          	lui	a5,0x1f83e
   10d8c:	9ab78793          	addi	a5,a5,-1621 # 1f83d9ab <__global_pointer$+0x1f82aa23>
   10d90:	00f52c23          	sw	a5,24(a0)
   10d94:	5be0d7b7          	lui	a5,0x5be0d
   10d98:	d1978793          	addi	a5,a5,-743 # 5be0cd19 <__global_pointer$+0x5bdf9d91>
   10d9c:	02052223          	sw	zero,36(a0)
   10da0:	02052023          	sw	zero,32(a0)
   10da4:	02051423          	sh	zero,40(a0)
   10da8:	00f52e23          	sw	a5,28(a0)
   10dac:	06052623          	sw	zero,108(a0)
   10db0:	06052823          	sw	zero,112(a0)
   10db4:	00000513          	li	a0,0
   10db8:	00008067          	ret
   10dbc:	00100513          	li	a0,1
   10dc0:	00008067          	ret

00010dc4 <SHA256Input>:
   10dc4:	0e050263          	beqz	a0,10ea8 <SHA256Input+0xe4>
   10dc8:	fd010113          	addi	sp,sp,-48
   10dcc:	02812423          	sw	s0,40(sp)
   10dd0:	02112623          	sw	ra,44(sp)
   10dd4:	02912223          	sw	s1,36(sp)
   10dd8:	03212023          	sw	s2,32(sp)
   10ddc:	01312e23          	sw	s3,28(sp)
   10de0:	00050413          	mv	s0,a0
   10de4:	00000513          	li	a0,0
   10de8:	08060e63          	beqz	a2,10e84 <SHA256Input+0xc0>
   10dec:	0a058a63          	beqz	a1,10ea0 <SHA256Input+0xdc>
   10df0:	06c42783          	lw	a5,108(s0)
   10df4:	0a079e63          	bnez	a5,10eb0 <SHA256Input+0xec>
   10df8:	07042503          	lw	a0,112(s0)
   10dfc:	08051463          	bnez	a0,10e84 <SHA256Input+0xc0>
   10e00:	00c584b3          	add	s1,a1,a2
   10e04:	04000913          	li	s2,64
   10e08:	00200993          	li	s3,2
   10e0c:	0200006f          	j	10e2c <SHA256Input+0x68>
   10e10:	02042783          	lw	a5,32(s0)
   10e14:	00178793          	addi	a5,a5,1
   10e18:	02f42023          	sw	a5,32(s0)
   10e1c:	04079063          	bnez	a5,10e5c <SHA256Input+0x98>
   10e20:	07342823          	sw	s3,112(s0)
   10e24:	00158593          	addi	a1,a1,1
   10e28:	04958c63          	beq	a1,s1,10e80 <SHA256Input+0xbc>
   10e2c:	02841783          	lh	a5,40(s0)
   10e30:	00178713          	addi	a4,a5,1
   10e34:	01071713          	slli	a4,a4,0x10
   10e38:	41075713          	srai	a4,a4,0x10
   10e3c:	02e41423          	sh	a4,40(s0)
   10e40:	0005c683          	lbu	a3,0(a1)
   10e44:	00f407b3          	add	a5,s0,a5
   10e48:	02d78523          	sb	a3,42(a5)
   10e4c:	02442683          	lw	a3,36(s0)
   10e50:	00868793          	addi	a5,a3,8
   10e54:	02f42223          	sw	a5,36(s0)
   10e58:	fad7ece3          	bltu	a5,a3,10e10 <SHA256Input+0x4c>
   10e5c:	07042783          	lw	a5,112(s0)
   10e60:	fc0792e3          	bnez	a5,10e24 <SHA256Input+0x60>
   10e64:	fd2710e3          	bne	a4,s2,10e24 <SHA256Input+0x60>
   10e68:	00040513          	mv	a0,s0
   10e6c:	00b12623          	sw	a1,12(sp)
   10e70:	d18ff0ef          	jal	ra,10388 <SHA224_256ProcessMessageBlock>
   10e74:	00c12583          	lw	a1,12(sp)
   10e78:	00158593          	addi	a1,a1,1
   10e7c:	fa9598e3          	bne	a1,s1,10e2c <SHA256Input+0x68>
   10e80:	07042503          	lw	a0,112(s0)
   10e84:	02c12083          	lw	ra,44(sp)
   10e88:	02812403          	lw	s0,40(sp)
   10e8c:	02412483          	lw	s1,36(sp)
   10e90:	02012903          	lw	s2,32(sp)
   10e94:	01c12983          	lw	s3,28(sp)
   10e98:	03010113          	addi	sp,sp,48
   10e9c:	00008067          	ret
   10ea0:	00100513          	li	a0,1
   10ea4:	fe1ff06f          	j	10e84 <SHA256Input+0xc0>
   10ea8:	00100513          	li	a0,1
   10eac:	00008067          	ret
   10eb0:	00300793          	li	a5,3
   10eb4:	06f42823          	sw	a5,112(s0)
   10eb8:	00300513          	li	a0,3
   10ebc:	fc9ff06f          	j	10e84 <SHA256Input+0xc0>

00010ec0 <SHA256FinalBits>:
   10ec0:	1c050063          	beqz	a0,11080 <SHA256FinalBits+0x1c0>
   10ec4:	ff010113          	addi	sp,sp,-16
   10ec8:	00812423          	sw	s0,8(sp)
   10ecc:	00112623          	sw	ra,12(sp)
   10ed0:	00912223          	sw	s1,4(sp)
   10ed4:	00050413          	mv	s0,a0
   10ed8:	00000513          	li	a0,0
   10edc:	14060063          	beqz	a2,1101c <SHA256FinalBits+0x15c>
   10ee0:	07042503          	lw	a0,112(s0)
   10ee4:	12051c63          	bnez	a0,1101c <SHA256FinalBits+0x15c>
   10ee8:	06c42683          	lw	a3,108(s0)
   10eec:	18069e63          	bnez	a3,11088 <SHA256FinalBits+0x1c8>
   10ef0:	00700793          	li	a5,7
   10ef4:	1ac7e263          	bltu	a5,a2,11098 <SHA256FinalBits+0x1d8>
   10ef8:	02442783          	lw	a5,36(s0)
   10efc:	00c784b3          	add	s1,a5,a2
   10f00:	02942223          	sw	s1,36(s0)
   10f04:	00f4fc63          	bgeu	s1,a5,10f1c <SHA256FinalBits+0x5c>
   10f08:	02042783          	lw	a5,32(s0)
   10f0c:	00178793          	addi	a5,a5,1
   10f10:	02f42023          	sw	a5,32(s0)
   10f14:	00079463          	bnez	a5,10f1c <SHA256FinalBits+0x5c>
   10f18:	00200693          	li	a3,2
   10f1c:	02841703          	lh	a4,40(s0)
   10f20:	c3018793          	addi	a5,gp,-976 # 12bb8 <masks.1628>
   10f24:	00f607b3          	add	a5,a2,a5
   10f28:	0007c803          	lbu	a6,0(a5)
   10f2c:	c2818793          	addi	a5,gp,-984 # 12bb0 <__SDATA_BEGIN__>
   10f30:	01071513          	slli	a0,a4,0x10
   10f34:	01055513          	srli	a0,a0,0x10
   10f38:	00f60633          	add	a2,a2,a5
   10f3c:	00150793          	addi	a5,a0,1
   10f40:	00064603          	lbu	a2,0(a2)
   10f44:	01079793          	slli	a5,a5,0x10
   10f48:	4107d793          	srai	a5,a5,0x10
   10f4c:	0105f5b3          	and	a1,a1,a6
   10f50:	06d42823          	sw	a3,112(s0)
   10f54:	02f41423          	sh	a5,40(s0)
   10f58:	03700693          	li	a3,55
   10f5c:	00c5e5b3          	or	a1,a1,a2
   10f60:	0ce6c863          	blt	a3,a4,11030 <SHA256FinalBits+0x170>
   10f64:	00e40733          	add	a4,s0,a4
   10f68:	02b70523          	sb	a1,42(a4)
   10f6c:	03700713          	li	a4,55
   10f70:	02f74863          	blt	a4,a5,10fa0 <SHA256FinalBits+0xe0>
   10f74:	03700613          	li	a2,55
   10f78:	40f60633          	sub	a2,a2,a5
   10f7c:	01061613          	slli	a2,a2,0x10
   10f80:	02a78793          	addi	a5,a5,42
   10f84:	01065613          	srli	a2,a2,0x10
   10f88:	00f40533          	add	a0,s0,a5
   10f8c:	00160613          	addi	a2,a2,1
   10f90:	00000593          	li	a1,0
   10f94:	430000ef          	jal	ra,113c4 <memset>
   10f98:	03800793          	li	a5,56
   10f9c:	02f41423          	sh	a5,40(s0)
   10fa0:	02045703          	lhu	a4,32(s0)
   10fa4:	02042783          	lw	a5,32(s0)
   10fa8:	01049593          	slli	a1,s1,0x10
   10fac:	0105d593          	srli	a1,a1,0x10
   10fb0:	0085d593          	srli	a1,a1,0x8
   10fb4:	00849693          	slli	a3,s1,0x8
   10fb8:	00871613          	slli	a2,a4,0x8
   10fbc:	00875713          	srli	a4,a4,0x8
   10fc0:	00e66633          	or	a2,a2,a4
   10fc4:	0187d813          	srli	a6,a5,0x18
   10fc8:	00b6e733          	or	a4,a3,a1
   10fcc:	0107d793          	srli	a5,a5,0x10
   10fd0:	0184d693          	srli	a3,s1,0x18
   10fd4:	0104d493          	srli	s1,s1,0x10
   10fd8:	06f401a3          	sb	a5,99(s0)
   10fdc:	00040513          	mv	a0,s0
   10fe0:	07040123          	sb	a6,98(s0)
   10fe4:	06c41223          	sh	a2,100(s0)
   10fe8:	06d40323          	sb	a3,102(s0)
   10fec:	06e41423          	sh	a4,104(s0)
   10ff0:	069403a3          	sb	s1,103(s0)
   10ff4:	b94ff0ef          	jal	ra,10388 <SHA224_256ProcessMessageBlock>
   10ff8:	04000613          	li	a2,64
   10ffc:	00000593          	li	a1,0
   11000:	02a40513          	addi	a0,s0,42
   11004:	3c0000ef          	jal	ra,113c4 <memset>
   11008:	07042503          	lw	a0,112(s0)
   1100c:	00100793          	li	a5,1
   11010:	02042023          	sw	zero,32(s0)
   11014:	02042223          	sw	zero,36(s0)
   11018:	06f42623          	sw	a5,108(s0)
   1101c:	00c12083          	lw	ra,12(sp)
   11020:	00812403          	lw	s0,8(sp)
   11024:	00412483          	lw	s1,4(sp)
   11028:	01010113          	addi	sp,sp,16
   1102c:	00008067          	ret
   11030:	00e40733          	add	a4,s0,a4
   11034:	02b70523          	sb	a1,42(a4)
   11038:	03f00713          	li	a4,63
   1103c:	02f74863          	blt	a4,a5,1106c <SHA256FinalBits+0x1ac>
   11040:	03e00613          	li	a2,62
   11044:	40a60633          	sub	a2,a2,a0
   11048:	01061613          	slli	a2,a2,0x10
   1104c:	02a78793          	addi	a5,a5,42
   11050:	01065613          	srli	a2,a2,0x10
   11054:	00f40533          	add	a0,s0,a5
   11058:	00160613          	addi	a2,a2,1
   1105c:	00000593          	li	a1,0
   11060:	364000ef          	jal	ra,113c4 <memset>
   11064:	04000793          	li	a5,64
   11068:	02f41423          	sh	a5,40(s0)
   1106c:	00040513          	mv	a0,s0
   11070:	b18ff0ef          	jal	ra,10388 <SHA224_256ProcessMessageBlock>
   11074:	02841783          	lh	a5,40(s0)
   11078:	02442483          	lw	s1,36(s0)
   1107c:	ef1ff06f          	j	10f6c <SHA256FinalBits+0xac>
   11080:	00100513          	li	a0,1
   11084:	00008067          	ret
   11088:	00300793          	li	a5,3
   1108c:	06f42823          	sw	a5,112(s0)
   11090:	00300513          	li	a0,3
   11094:	f89ff06f          	j	1101c <SHA256FinalBits+0x15c>
   11098:	00400793          	li	a5,4
   1109c:	06f42823          	sw	a5,112(s0)
   110a0:	00400513          	li	a0,4
   110a4:	f79ff06f          	j	1101c <SHA256FinalBits+0x15c>

000110a8 <SHA256Result>:
   110a8:	ff010113          	addi	sp,sp,-16
   110ac:	00112623          	sw	ra,12(sp)
   110b0:	00812423          	sw	s0,8(sp)
   110b4:	00912223          	sw	s1,4(sp)
   110b8:	01212023          	sw	s2,0(sp)
   110bc:	06050863          	beqz	a0,1112c <SHA256Result+0x84>
   110c0:	06058663          	beqz	a1,1112c <SHA256Result+0x84>
   110c4:	07052903          	lw	s2,112(a0)
   110c8:	04091463          	bnez	s2,11110 <SHA256Result+0x68>
   110cc:	06c52783          	lw	a5,108(a0)
   110d0:	00058493          	mv	s1,a1
   110d4:	00050413          	mv	s0,a0
   110d8:	06078a63          	beqz	a5,1114c <SHA256Result+0xa4>
   110dc:	00000793          	li	a5,0
   110e0:	02000593          	li	a1,32
   110e4:	ffc7f693          	andi	a3,a5,-4
   110e8:	00d406b3          	add	a3,s0,a3
   110ec:	fff7c713          	not	a4,a5
   110f0:	0006a683          	lw	a3,0(a3)
   110f4:	00377713          	andi	a4,a4,3
   110f8:	00371713          	slli	a4,a4,0x3
   110fc:	00f48633          	add	a2,s1,a5
   11100:	00e6d733          	srl	a4,a3,a4
   11104:	00e60023          	sb	a4,0(a2)
   11108:	00178793          	addi	a5,a5,1
   1110c:	fcb79ce3          	bne	a5,a1,110e4 <SHA256Result+0x3c>
   11110:	00c12083          	lw	ra,12(sp)
   11114:	00812403          	lw	s0,8(sp)
   11118:	00090513          	mv	a0,s2
   1111c:	00412483          	lw	s1,4(sp)
   11120:	00012903          	lw	s2,0(sp)
   11124:	01010113          	addi	sp,sp,16
   11128:	00008067          	ret
   1112c:	00c12083          	lw	ra,12(sp)
   11130:	00812403          	lw	s0,8(sp)
   11134:	00100913          	li	s2,1
   11138:	00090513          	mv	a0,s2
   1113c:	00412483          	lw	s1,4(sp)
   11140:	00012903          	lw	s2,0(sp)
   11144:	01010113          	addi	sp,sp,16
   11148:	00008067          	ret
   1114c:	02851783          	lh	a5,40(a0)
   11150:	03700693          	li	a3,55
   11154:	01079713          	slli	a4,a5,0x10
   11158:	01075713          	srli	a4,a4,0x10
   1115c:	00170513          	addi	a0,a4,1
   11160:	01051513          	slli	a0,a0,0x10
   11164:	41055513          	srai	a0,a0,0x10
   11168:	02a41423          	sh	a0,40(s0)
   1116c:	10f6d063          	bge	a3,a5,1126c <SHA256Result+0x1c4>
   11170:	00f407b3          	add	a5,s0,a5
   11174:	f8000693          	li	a3,-128
   11178:	02d78523          	sb	a3,42(a5)
   1117c:	03f00793          	li	a5,63
   11180:	02a7c863          	blt	a5,a0,111b0 <SHA256Result+0x108>
   11184:	03e00613          	li	a2,62
   11188:	40e60633          	sub	a2,a2,a4
   1118c:	01061613          	slli	a2,a2,0x10
   11190:	01065613          	srli	a2,a2,0x10
   11194:	02a50513          	addi	a0,a0,42
   11198:	00160613          	addi	a2,a2,1
   1119c:	00000593          	li	a1,0
   111a0:	00a40533          	add	a0,s0,a0
   111a4:	220000ef          	jal	ra,113c4 <memset>
   111a8:	04000793          	li	a5,64
   111ac:	02f41423          	sh	a5,40(s0)
   111b0:	00040513          	mv	a0,s0
   111b4:	9d4ff0ef          	jal	ra,10388 <SHA224_256ProcessMessageBlock>
   111b8:	02841503          	lh	a0,40(s0)
   111bc:	03700793          	li	a5,55
   111c0:	02a7c863          	blt	a5,a0,111f0 <SHA256Result+0x148>
   111c4:	03700613          	li	a2,55
   111c8:	40a60633          	sub	a2,a2,a0
   111cc:	01061613          	slli	a2,a2,0x10
   111d0:	01065613          	srli	a2,a2,0x10
   111d4:	02a50513          	addi	a0,a0,42
   111d8:	00160613          	addi	a2,a2,1
   111dc:	00000593          	li	a1,0
   111e0:	00a40533          	add	a0,s0,a0
   111e4:	1e0000ef          	jal	ra,113c4 <memset>
   111e8:	03800793          	li	a5,56
   111ec:	02f41423          	sh	a5,40(s0)
   111f0:	02045603          	lhu	a2,32(s0)
   111f4:	02445683          	lhu	a3,36(s0)
   111f8:	02042703          	lw	a4,32(s0)
   111fc:	02442783          	lw	a5,36(s0)
   11200:	00861513          	slli	a0,a2,0x8
   11204:	00869593          	slli	a1,a3,0x8
   11208:	00865613          	srli	a2,a2,0x8
   1120c:	0086d693          	srli	a3,a3,0x8
   11210:	00c56633          	or	a2,a0,a2
   11214:	01875813          	srli	a6,a4,0x18
   11218:	00d5e6b3          	or	a3,a1,a3
   1121c:	01075713          	srli	a4,a4,0x10
   11220:	0187d593          	srli	a1,a5,0x18
   11224:	0107d793          	srli	a5,a5,0x10
   11228:	06f403a3          	sb	a5,103(s0)
   1122c:	00040513          	mv	a0,s0
   11230:	07040123          	sb	a6,98(s0)
   11234:	06e401a3          	sb	a4,99(s0)
   11238:	06c41223          	sh	a2,100(s0)
   1123c:	06b40323          	sb	a1,102(s0)
   11240:	06d41423          	sh	a3,104(s0)
   11244:	944ff0ef          	jal	ra,10388 <SHA224_256ProcessMessageBlock>
   11248:	04000613          	li	a2,64
   1124c:	00000593          	li	a1,0
   11250:	02a40513          	addi	a0,s0,42
   11254:	170000ef          	jal	ra,113c4 <memset>
   11258:	00100793          	li	a5,1
   1125c:	02042023          	sw	zero,32(s0)
   11260:	02042223          	sw	zero,36(s0)
   11264:	06f42623          	sw	a5,108(s0)
   11268:	e75ff06f          	j	110dc <SHA256Result+0x34>
   1126c:	00f407b3          	add	a5,s0,a5
   11270:	f8000713          	li	a4,-128
   11274:	02e78523          	sb	a4,42(a5)
   11278:	f45ff06f          	j	111bc <SHA256Result+0x114>

0001127c <atexit>:
   1127c:	00050593          	mv	a1,a0
   11280:	00000693          	li	a3,0
   11284:	00000613          	li	a2,0
   11288:	00000513          	li	a0,0
   1128c:	2140006f          	j	114a0 <__register_exitproc>

00011290 <exit>:
   11290:	ff010113          	addi	sp,sp,-16
   11294:	00000593          	li	a1,0
   11298:	00812423          	sw	s0,8(sp)
   1129c:	00112623          	sw	ra,12(sp)
   112a0:	00050413          	mv	s0,a0
   112a4:	278000ef          	jal	ra,1151c <__call_exitprocs>
   112a8:	c381a503          	lw	a0,-968(gp) # 12bc0 <_global_impure_ptr>
   112ac:	03c52783          	lw	a5,60(a0)
   112b0:	00078463          	beqz	a5,112b8 <exit+0x28>
   112b4:	000780e7          	jalr	a5
   112b8:	00040513          	mv	a0,s0
   112bc:	36c000ef          	jal	ra,11628 <_exit>

000112c0 <__libc_fini_array>:
   112c0:	ff010113          	addi	sp,sp,-16
   112c4:	000127b7          	lui	a5,0x12
   112c8:	00812423          	sw	s0,8(sp)
   112cc:	00012437          	lui	s0,0x12
   112d0:	78078713          	addi	a4,a5,1920 # 12780 <__init_array_end>
   112d4:	78440413          	addi	s0,s0,1924 # 12784 <__fini_array_end>
   112d8:	40e40433          	sub	s0,s0,a4
   112dc:	00912223          	sw	s1,4(sp)
   112e0:	00112623          	sw	ra,12(sp)
   112e4:	40245413          	srai	s0,s0,0x2
   112e8:	78078493          	addi	s1,a5,1920
   112ec:	00041c63          	bnez	s0,11304 <__libc_fini_array+0x44>
   112f0:	00812403          	lw	s0,8(sp)
   112f4:	00c12083          	lw	ra,12(sp)
   112f8:	00412483          	lw	s1,4(sp)
   112fc:	01010113          	addi	sp,sp,16
   11300:	fa1fe06f          	j	102a0 <_fini>
   11304:	fff40413          	addi	s0,s0,-1
   11308:	00241793          	slli	a5,s0,0x2
   1130c:	00f487b3          	add	a5,s1,a5
   11310:	0007a783          	lw	a5,0(a5)
   11314:	000780e7          	jalr	a5
   11318:	fd5ff06f          	j	112ec <__libc_fini_array+0x2c>

0001131c <__libc_init_array>:
   1131c:	ff010113          	addi	sp,sp,-16
   11320:	000127b7          	lui	a5,0x12
   11324:	00812423          	sw	s0,8(sp)
   11328:	00012437          	lui	s0,0x12
   1132c:	77c78713          	addi	a4,a5,1916 # 1277c <__frame_dummy_init_array_entry>
   11330:	77c40413          	addi	s0,s0,1916 # 1277c <__frame_dummy_init_array_entry>
   11334:	40e40433          	sub	s0,s0,a4
   11338:	00912223          	sw	s1,4(sp)
   1133c:	01212023          	sw	s2,0(sp)
   11340:	00112623          	sw	ra,12(sp)
   11344:	40245413          	srai	s0,s0,0x2
   11348:	00000493          	li	s1,0
   1134c:	77c78913          	addi	s2,a5,1916
   11350:	04849263          	bne	s1,s0,11394 <__libc_init_array+0x78>
   11354:	f4dfe0ef          	jal	ra,102a0 <_fini>
   11358:	000127b7          	lui	a5,0x12
   1135c:	00012437          	lui	s0,0x12
   11360:	77c78713          	addi	a4,a5,1916 # 1277c <__frame_dummy_init_array_entry>
   11364:	78040413          	addi	s0,s0,1920 # 12780 <__init_array_end>
   11368:	40e40433          	sub	s0,s0,a4
   1136c:	40245413          	srai	s0,s0,0x2
   11370:	00000493          	li	s1,0
   11374:	77c78913          	addi	s2,a5,1916
   11378:	02849a63          	bne	s1,s0,113ac <__libc_init_array+0x90>
   1137c:	00c12083          	lw	ra,12(sp)
   11380:	00812403          	lw	s0,8(sp)
   11384:	00412483          	lw	s1,4(sp)
   11388:	00012903          	lw	s2,0(sp)
   1138c:	01010113          	addi	sp,sp,16
   11390:	00008067          	ret
   11394:	00249793          	slli	a5,s1,0x2
   11398:	00f907b3          	add	a5,s2,a5
   1139c:	0007a783          	lw	a5,0(a5)
   113a0:	00148493          	addi	s1,s1,1
   113a4:	000780e7          	jalr	a5
   113a8:	fa9ff06f          	j	11350 <__libc_init_array+0x34>
   113ac:	00249793          	slli	a5,s1,0x2
   113b0:	00f907b3          	add	a5,s2,a5
   113b4:	0007a783          	lw	a5,0(a5)
   113b8:	00148493          	addi	s1,s1,1
   113bc:	000780e7          	jalr	a5
   113c0:	fb9ff06f          	j	11378 <__libc_init_array+0x5c>

000113c4 <memset>:
   113c4:	00f00313          	li	t1,15
   113c8:	00050713          	mv	a4,a0
   113cc:	02c37e63          	bgeu	t1,a2,11408 <memset+0x44>
   113d0:	00f77793          	andi	a5,a4,15
   113d4:	0a079063          	bnez	a5,11474 <memset+0xb0>
   113d8:	08059263          	bnez	a1,1145c <memset+0x98>
   113dc:	ff067693          	andi	a3,a2,-16
   113e0:	00f67613          	andi	a2,a2,15
   113e4:	00e686b3          	add	a3,a3,a4
   113e8:	00b72023          	sw	a1,0(a4)
   113ec:	00b72223          	sw	a1,4(a4)
   113f0:	00b72423          	sw	a1,8(a4)
   113f4:	00b72623          	sw	a1,12(a4)
   113f8:	01070713          	addi	a4,a4,16
   113fc:	fed766e3          	bltu	a4,a3,113e8 <memset+0x24>
   11400:	00061463          	bnez	a2,11408 <memset+0x44>
   11404:	00008067          	ret
   11408:	40c306b3          	sub	a3,t1,a2
   1140c:	00269693          	slli	a3,a3,0x2
   11410:	00000297          	auipc	t0,0x0
   11414:	005686b3          	add	a3,a3,t0
   11418:	00c68067          	jr	12(a3)
   1141c:	00b70723          	sb	a1,14(a4)
   11420:	00b706a3          	sb	a1,13(a4)
   11424:	00b70623          	sb	a1,12(a4)
   11428:	00b705a3          	sb	a1,11(a4)
   1142c:	00b70523          	sb	a1,10(a4)
   11430:	00b704a3          	sb	a1,9(a4)
   11434:	00b70423          	sb	a1,8(a4)
   11438:	00b703a3          	sb	a1,7(a4)
   1143c:	00b70323          	sb	a1,6(a4)
   11440:	00b702a3          	sb	a1,5(a4)
   11444:	00b70223          	sb	a1,4(a4)
   11448:	00b701a3          	sb	a1,3(a4)
   1144c:	00b70123          	sb	a1,2(a4)
   11450:	00b700a3          	sb	a1,1(a4)
   11454:	00b70023          	sb	a1,0(a4)
   11458:	00008067          	ret
   1145c:	0ff5f593          	andi	a1,a1,255
   11460:	00859693          	slli	a3,a1,0x8
   11464:	00d5e5b3          	or	a1,a1,a3
   11468:	01059693          	slli	a3,a1,0x10
   1146c:	00d5e5b3          	or	a1,a1,a3
   11470:	f6dff06f          	j	113dc <memset+0x18>
   11474:	00279693          	slli	a3,a5,0x2
   11478:	00000297          	auipc	t0,0x0
   1147c:	005686b3          	add	a3,a3,t0
   11480:	00008293          	mv	t0,ra
   11484:	fa0680e7          	jalr	-96(a3)
   11488:	00028093          	mv	ra,t0
   1148c:	ff078793          	addi	a5,a5,-16
   11490:	40f70733          	sub	a4,a4,a5
   11494:	00f60633          	add	a2,a2,a5
   11498:	f6c378e3          	bgeu	t1,a2,11408 <memset+0x44>
   1149c:	f3dff06f          	j	113d8 <memset+0x14>

000114a0 <__register_exitproc>:
   114a0:	c381a703          	lw	a4,-968(gp) # 12bc0 <_global_impure_ptr>
   114a4:	00050313          	mv	t1,a0
   114a8:	14872783          	lw	a5,328(a4)
   114ac:	00079663          	bnez	a5,114b8 <__register_exitproc+0x18>
   114b0:	14c70793          	addi	a5,a4,332
   114b4:	14f72423          	sw	a5,328(a4)
   114b8:	0047a703          	lw	a4,4(a5)
   114bc:	01f00813          	li	a6,31
   114c0:	fff00513          	li	a0,-1
   114c4:	04e84a63          	blt	a6,a4,11518 <__register_exitproc+0x78>
   114c8:	00271893          	slli	a7,a4,0x2
   114cc:	02030c63          	beqz	t1,11504 <__register_exitproc+0x64>
   114d0:	01178533          	add	a0,a5,a7
   114d4:	08c52423          	sw	a2,136(a0)
   114d8:	1887a803          	lw	a6,392(a5)
   114dc:	00100613          	li	a2,1
   114e0:	00e61633          	sll	a2,a2,a4
   114e4:	00c86833          	or	a6,a6,a2
   114e8:	1907a423          	sw	a6,392(a5)
   114ec:	10d52423          	sw	a3,264(a0)
   114f0:	00200693          	li	a3,2
   114f4:	00d31863          	bne	t1,a3,11504 <__register_exitproc+0x64>
   114f8:	18c7a683          	lw	a3,396(a5)
   114fc:	00c6e633          	or	a2,a3,a2
   11500:	18c7a623          	sw	a2,396(a5)
   11504:	00170713          	addi	a4,a4,1
   11508:	00e7a223          	sw	a4,4(a5)
   1150c:	011787b3          	add	a5,a5,a7
   11510:	00b7a423          	sw	a1,8(a5)
   11514:	00000513          	li	a0,0
   11518:	00008067          	ret

0001151c <__call_exitprocs>:
   1151c:	fd010113          	addi	sp,sp,-48
   11520:	01312e23          	sw	s3,28(sp)
   11524:	c381a983          	lw	s3,-968(gp) # 12bc0 <_global_impure_ptr>
   11528:	01412c23          	sw	s4,24(sp)
   1152c:	01512a23          	sw	s5,20(sp)
   11530:	01612823          	sw	s6,16(sp)
   11534:	02112623          	sw	ra,44(sp)
   11538:	02812423          	sw	s0,40(sp)
   1153c:	02912223          	sw	s1,36(sp)
   11540:	03212023          	sw	s2,32(sp)
   11544:	01712623          	sw	s7,12(sp)
   11548:	00050a93          	mv	s5,a0
   1154c:	00058a13          	mv	s4,a1
   11550:	00100b13          	li	s6,1
   11554:	1489a483          	lw	s1,328(s3)
   11558:	00048c63          	beqz	s1,11570 <__call_exitprocs+0x54>
   1155c:	0044a403          	lw	s0,4(s1)
   11560:	fff40913          	addi	s2,s0,-1
   11564:	00241413          	slli	s0,s0,0x2
   11568:	00848433          	add	s0,s1,s0
   1156c:	02095863          	bgez	s2,1159c <__call_exitprocs+0x80>
   11570:	02c12083          	lw	ra,44(sp)
   11574:	02812403          	lw	s0,40(sp)
   11578:	02412483          	lw	s1,36(sp)
   1157c:	02012903          	lw	s2,32(sp)
   11580:	01c12983          	lw	s3,28(sp)
   11584:	01812a03          	lw	s4,24(sp)
   11588:	01412a83          	lw	s5,20(sp)
   1158c:	01012b03          	lw	s6,16(sp)
   11590:	00c12b83          	lw	s7,12(sp)
   11594:	03010113          	addi	sp,sp,48
   11598:	00008067          	ret
   1159c:	000a0c63          	beqz	s4,115b4 <__call_exitprocs+0x98>
   115a0:	10442783          	lw	a5,260(s0)
   115a4:	01478863          	beq	a5,s4,115b4 <__call_exitprocs+0x98>
   115a8:	fff90913          	addi	s2,s2,-1
   115ac:	ffc40413          	addi	s0,s0,-4
   115b0:	fbdff06f          	j	1156c <__call_exitprocs+0x50>
   115b4:	0044a703          	lw	a4,4(s1)
   115b8:	00442783          	lw	a5,4(s0)
   115bc:	fff70713          	addi	a4,a4,-1
   115c0:	03271c63          	bne	a4,s2,115f8 <__call_exitprocs+0xdc>
   115c4:	0124a223          	sw	s2,4(s1)
   115c8:	fe0780e3          	beqz	a5,115a8 <__call_exitprocs+0x8c>
   115cc:	1884a683          	lw	a3,392(s1)
   115d0:	012b1733          	sll	a4,s6,s2
   115d4:	0044ab83          	lw	s7,4(s1)
   115d8:	00d776b3          	and	a3,a4,a3
   115dc:	02069263          	bnez	a3,11600 <__call_exitprocs+0xe4>
   115e0:	000780e7          	jalr	a5
   115e4:	0044a783          	lw	a5,4(s1)
   115e8:	f77796e3          	bne	a5,s7,11554 <__call_exitprocs+0x38>
   115ec:	1489a783          	lw	a5,328(s3)
   115f0:	fa978ce3          	beq	a5,s1,115a8 <__call_exitprocs+0x8c>
   115f4:	f61ff06f          	j	11554 <__call_exitprocs+0x38>
   115f8:	00042223          	sw	zero,4(s0)
   115fc:	fcdff06f          	j	115c8 <__call_exitprocs+0xac>
   11600:	18c4a683          	lw	a3,396(s1)
   11604:	08442583          	lw	a1,132(s0)
   11608:	00d77733          	and	a4,a4,a3
   1160c:	00071863          	bnez	a4,1161c <__call_exitprocs+0x100>
   11610:	000a8513          	mv	a0,s5
   11614:	000780e7          	jalr	a5
   11618:	fcdff06f          	j	115e4 <__call_exitprocs+0xc8>
   1161c:	00058513          	mv	a0,a1
   11620:	000780e7          	jalr	a5
   11624:	fc1ff06f          	j	115e4 <__call_exitprocs+0xc8>

00011628 <_exit>:
   11628:	00000593          	li	a1,0
   1162c:	00000613          	li	a2,0
   11630:	00000693          	li	a3,0
   11634:	00000713          	li	a4,0
   11638:	00000793          	li	a5,0
   1163c:	05d00893          	li	a7,93
   11640:	00000073          	ecall
   11644:	02055263          	bgez	a0,11668 <_exit+0x40>
   11648:	ff010113          	addi	sp,sp,-16
   1164c:	00812423          	sw	s0,8(sp)
   11650:	00050413          	mv	s0,a0
   11654:	00112623          	sw	ra,12(sp)
   11658:	40800433          	neg	s0,s0
   1165c:	010000ef          	jal	ra,1166c <__errno>
   11660:	00852023          	sw	s0,0(a0)
   11664:	0000006f          	j	11664 <_exit+0x3c>
   11668:	0000006f          	j	11668 <_exit+0x40>

0001166c <__errno>:
   1166c:	c401a503          	lw	a0,-960(gp) # 12bc8 <_impure_ptr>
   11670:	00008067          	ret
